target datalayout = "e-m:e-p270:32:32-p271:32:32-p272:64:64-i64:64-i128:128-f80:128-n8:16:32:64-S128"
target triple = "x86_64-pc-linux-gnu"

@fatal_fn = internal global ptr null, align 8

; Function Attrs: noreturn nounwind uwtable
define internal void @event_exit(i32 noundef %0) #1 {
  %2 = alloca i32, align 4
  store i32 %0, ptr %2, align 4
  %3 = load ptr, ptr @fatal_fn, align 8
  %4 = icmp ne ptr %3, null
  br i1 %4, label %5, label %9

5:                                                ; preds = %1
  %6 = load ptr, ptr @fatal_fn, align 8
  %7 = load i32, ptr %2, align 4
  call void %6(i32 noundef %7)
  %8 = load i32, ptr %2, align 4
  call void @exit(i32 noundef %8) #13
  unreachable

9:                                                ; preds = %1
  %10 = load i32, ptr %2, align 4
  %11 = icmp eq i32 %10, -559030611
  br i1 %11, label %12, label %13

12:                                               ; preds = %9
  call void @abort() #13
  unreachable

13:                                               ; preds = %9
  %14 = load i32, ptr %2, align 4
  call void @exit(i32 noundef %14) #13
  unreachable
}