; Function Attrs: noreturn nounwind uwtable
define internal fastcc void @event_exit(i32 noundef %0) unnamed_addr #1 {
  %2 = load ptr, ptr @fatal_fn, align 8
  %.not = icmp eq ptr %2, null
  br i1 %.not, label %4, label %3

3:                                                ; preds = %1
  tail call void %2(i32 noundef %0) #12
  tail call void @exit(i32 noundef %0) #17
  unreachable

4:                                                ; preds = %1
  %5 = icmp eq i32 %0, -559030611
  br i1 %5, label %6, label %7

6:                                                ; preds = %4
  tail call void @abort() #17
  unreachable

7:                                                ; preds = %4
  tail call void @exit(i32 noundef %0) #17
  unreachable
}